target datalayout = "e-m:e-p270:32:32-p271:32:32-p272:64:64-i64:64-i128:128-f80:128-n8:16:32:64-S128"
target triple = "x86_64-pc-linux-gnu"

%struct.lwCanvas = type { i32, i32, ptr }
%struct.skyscraper = type { i32, i32, i32, i32, i32 }

; Function Attrs: nounwind uwtable
define dso_local void @generateSkyscraper(ptr noundef %0, ptr noundef %1) #0 {
  %3 = alloca ptr, align 8
  %4 = alloca ptr, align 8
  %5 = alloca i32, align 4
  %6 = alloca i32, align 4
  %7 = alloca i32, align 4
  %8 = alloca i32, align 4
  %9 = alloca i32, align 4
  %10 = alloca i32, align 4
  %11 = alloca i32, align 4
  %12 = alloca i32, align 4
  store ptr %0, ptr %3, align 8, !tbaa !5
  store ptr %1, ptr %4, align 8, !tbaa !10
  call void @llvm.lifetime.start.p0(i64 4, ptr %5) #5
  %13 = load ptr, ptr %3, align 8, !tbaa !5
  %14 = getelementptr inbounds nuw %struct.lwCanvas, ptr %13, i32 0, i32 1
  %15 = load i32, ptr %14, align 4, !tbaa !12
  %16 = sub nsw i32 %15, 1
  store i32 %16, ptr %5, align 4, !tbaa !16
  call void @llvm.lifetime.start.p0(i64 4, ptr %6) #5
  %17 = load i32, ptr %5, align 4, !tbaa !16
  %18 = load ptr, ptr %4, align 8, !tbaa !10
  %19 = getelementptr inbounds nuw %struct.skyscraper, ptr %18, i32 0, i32 2
  %20 = load i32, ptr %19, align 4, !tbaa !17
  %21 = sub nsw i32 %17, %20
  %22 = add nsw i32 %21, 1
  store i32 %22, ptr %6, align 4, !tbaa !16
  call void @llvm.lifetime.start.p0(i64 4, ptr %7) #5
  %23 = load i32, ptr %5, align 4, !tbaa !16
  store i32 %23, ptr %7, align 4, !tbaa !16
  br label %24

24:                                               ; preds = %154, %2
  %25 = load i32, ptr %7, align 4, !tbaa !16
  %26 = load i32, ptr %6, align 4, !tbaa !16
  %27 = icmp sge i32 %25, %26
  br i1 %27, label %29, label %28

28:                                               ; preds = %24
  store i32 2, ptr %8, align 4
  call void @llvm.lifetime.end.p0(i64 4, ptr %7) #5
  br label %157

29:                                               ; preds = %24
  call void @llvm.lifetime.start.p0(i64 4, ptr %9) #5
  %30 = load ptr, ptr %4, align 8, !tbaa !10
  %31 = getelementptr inbounds nuw %struct.skyscraper, ptr %30, i32 0, i32 0
  %32 = load i32, ptr %31, align 4, !tbaa !19
  store i32 %32, ptr %9, align 4, !tbaa !16
  br label %33

33:                                               ; preds = %150, %29
  %34 = load i32, ptr %9, align 4, !tbaa !16
  %35 = load ptr, ptr %4, align 8, !tbaa !10
  %36 = getelementptr inbounds nuw %struct.skyscraper, ptr %35, i32 0, i32 0
  %37 = load i32, ptr %36, align 4, !tbaa !19
  %38 = load ptr, ptr %4, align 8, !tbaa !10
  %39 = getelementptr inbounds nuw %struct.skyscraper, ptr %38, i32 0, i32 1
  %40 = load i32, ptr %39, align 4, !tbaa !20
  %41 = add nsw i32 %37, %40
  %42 = icmp slt i32 %34, %41
  br i1 %42, label %44, label %43

43:                                               ; preds = %33
  store i32 5, ptr %8, align 4
  call void @llvm.lifetime.end.p0(i64 4, ptr %9) #5
  br label %153

44:                                               ; preds = %33
  %45 = load i32, ptr %7, align 4, !tbaa !16
  %46 = load i32, ptr %6, align 4, !tbaa !16
  %47 = icmp eq i32 %45, %46
  br i1 %47, label %48, label %67

48:                                               ; preds = %44
  %49 = load i32, ptr %9, align 4, !tbaa !16
  %50 = load ptr, ptr %4, align 8, !tbaa !10
  %51 = getelementptr inbounds nuw %struct.skyscraper, ptr %50, i32 0, i32 0
  %52 = load i32, ptr %51, align 4, !tbaa !19
  %53 = add nsw i32 %52, 1
  %54 = icmp sle i32 %49, %53
  br i1 %54, label %66, label %55

55:                                               ; preds = %48
  %56 = load i32, ptr %9, align 4, !tbaa !16
  %57 = load ptr, ptr %4, align 8, !tbaa !10
  %58 = getelementptr inbounds nuw %struct.skyscraper, ptr %57, i32 0, i32 0
  %59 = load i32, ptr %58, align 4, !tbaa !19
  %60 = load ptr, ptr %4, align 8, !tbaa !10
  %61 = getelementptr inbounds nuw %struct.skyscraper, ptr %60, i32 0, i32 1
  %62 = load i32, ptr %61, align 4, !tbaa !20
  %63 = add nsw i32 %59, %62
  %64 = sub nsw i32 %63, 2
  %65 = icmp sge i32 %56, %64
  br i1 %65, label %66, label %67

66:                                               ; preds = %55, %48
  br label %150

67:                                               ; preds = %55, %44
  call void @llvm.lifetime.start.p0(i64 4, ptr %10) #5
  %68 = load ptr, ptr %4, align 8, !tbaa !10
  %69 = getelementptr inbounds nuw %struct.skyscraper, ptr %68, i32 0, i32 4
  %70 = load i32, ptr %69, align 4, !tbaa !21
  store i32 %70, ptr %10, align 4, !tbaa !16
  %71 = load ptr, ptr %4, align 8, !tbaa !10
  %72 = getelementptr inbounds nuw %struct.skyscraper, ptr %71, i32 0, i32 3
  %73 = load i32, ptr %72, align 4, !tbaa !22
  %74 = icmp ne i32 %73, 0
  br i1 %74, label %75, label %145

75:                                               ; preds = %67
  %76 = load i32, ptr %9, align 4, !tbaa !16
  %77 = load ptr, ptr %4, align 8, !tbaa !10
  %78 = getelementptr inbounds nuw %struct.skyscraper, ptr %77, i32 0, i32 0
  %79 = load i32, ptr %78, align 4, !tbaa !19
  %80 = add nsw i32 %79, 1
  %81 = icmp sgt i32 %76, %80
  br i1 %81, label %82, label %145

82:                                               ; preds = %75
  %83 = load i32, ptr %9, align 4, !tbaa !16
  %84 = load ptr, ptr %4, align 8, !tbaa !10
  %85 = getelementptr inbounds nuw %struct.skyscraper, ptr %84, i32 0, i32 0
  %86 = load i32, ptr %85, align 4, !tbaa !19
  %87 = load ptr, ptr %4, align 8, !tbaa !10
  %88 = getelementptr inbounds nuw %struct.skyscraper, ptr %87, i32 0, i32 1
  %89 = load i32, ptr %88, align 4, !tbaa !20
  %90 = add nsw i32 %86, %89
  %91 = sub nsw i32 %90, 2
  %92 = icmp slt i32 %83, %91
  br i1 %92, label %93, label %145

93:                                               ; preds = %82
  %94 = load i32, ptr %7, align 4, !tbaa !16
  %95 = load i32, ptr %6, align 4, !tbaa !16
  %96 = add nsw i32 %95, 1
  %97 = icmp sgt i32 %94, %96
  br i1 %97, label %98, label %145

98:                                               ; preds = %93
  %99 = load i32, ptr %7, align 4, !tbaa !16
  %100 = load i32, ptr %5, align 4, !tbaa !16
  %101 = sub nsw i32 %100, 1
  %102 = icmp slt i32 %99, %101
  br i1 %102, label %103, label %145

103:                                              ; preds = %98
  call void @llvm.lifetime.start.p0(i64 4, ptr %11) #5
  %104 = load i32, ptr %9, align 4, !tbaa !16
  %105 = load ptr, ptr %4, align 8, !tbaa !10
  %106 = getelementptr inbounds nuw %struct.skyscraper, ptr %105, i32 0, i32 0
  %107 = load i32, ptr %106, align 4, !tbaa !19
  %108 = add nsw i32 %107, 1
  %109 = sub nsw i32 %104, %108
  store i32 %109, ptr %11, align 4, !tbaa !16
  call void @llvm.lifetime.start.p0(i64 4, ptr %12) #5
  %110 = load i32, ptr %7, align 4, !tbaa !16
  %111 = load i32, ptr %6, align 4, !tbaa !16
  %112 = add nsw i32 %111, 1
  %113 = sub nsw i32 %110, %112
  store i32 %113, ptr %12, align 4, !tbaa !16
  %114 = load i32, ptr %11, align 4, !tbaa !16
  %115 = sdiv i32 %114, 2
  %116 = srem i32 %115, 2
  %117 = icmp ne i32 %116, 0
  br i1 %117, label %118, label %144

118:                                              ; preds = %103
  %119 = load i32, ptr %12, align 4, !tbaa !16
  %120 = srem i32 %119, 2
  %121 = icmp ne i32 %120, 0
  br i1 %121, label %122, label %144

122:                                              ; preds = %118
  br label %123

123:                                              ; preds = %127, %122
  %124 = call i32 @rand() #5
  %125 = srem i32 %124, 2
  %126 = add nsw i32 1, %125
  store i32 %126, ptr %10, align 4, !tbaa !16
  br label %127

127:                                              ; preds = %123
  %128 = load i32, ptr %10, align 4, !tbaa !16
  %129 = load ptr, ptr %4, align 8, !tbaa !10
  %130 = getelementptr inbounds nuw %struct.skyscraper, ptr %129, i32 0, i32 4
  %131 = load i32, ptr %130, align 4, !tbaa !21
  %132 = icmp eq i32 %128, %131
  br i1 %132, label %123, label %133, !llvm.loop !23

133:                                              ; preds = %127
  %134 = load i32, ptr %11, align 4, !tbaa !16
  %135 = srem i32 %134, 2
  %136 = icmp ne i32 %135, 0
  br i1 %136, label %137, label %143

137:                                              ; preds = %133
  %138 = load ptr, ptr %3, align 8, !tbaa !5
  %139 = load i32, ptr %9, align 4, !tbaa !16
  %140 = sub nsw i32 %139, 1
  %141 = load i32, ptr %7, align 4, !tbaa !16
  %142 = call i32 @lwGetPixel(ptr noundef %138, i32 noundef %140, i32 noundef %141)
  store i32 %142, ptr %10, align 4, !tbaa !16
  br label %143

143:                                              ; preds = %137, %133
  br label %144

144:                                              ; preds = %143, %118, %103
  call void @llvm.lifetime.end.p0(i64 4, ptr %12) #5
  call void @llvm.lifetime.end.p0(i64 4, ptr %11) #5
  br label %145

145:                                              ; preds = %144, %98, %93, %82, %75, %67
  %146 = load ptr, ptr %3, align 8, !tbaa !5
  %147 = load i32, ptr %9, align 4, !tbaa !16
  %148 = load i32, ptr %7, align 4, !tbaa !16
  %149 = load i32, ptr %10, align 4, !tbaa !16
  call void @lwDrawPixel(ptr noundef %146, i32 noundef %147, i32 noundef %148, i32 noundef %149)
  call void @llvm.lifetime.end.p0(i64 4, ptr %10) #5
  br label %150

150:                                              ; preds = %145, %66
  %151 = load i32, ptr %9, align 4, !tbaa !16
  %152 = add nsw i32 %151, 1
  store i32 %152, ptr %9, align 4, !tbaa !16
  br label %33, !llvm.loop !25

153:                                              ; preds = %43
  br label %154

154:                                              ; preds = %153
  %155 = load i32, ptr %7, align 4, !tbaa !16
  %156 = add nsw i32 %155, -1
  store i32 %156, ptr %7, align 4, !tbaa !16
  br label %24, !llvm.loop !26

157:                                              ; preds = %28
  call void @llvm.lifetime.end.p0(i64 4, ptr %6) #5
  call void @llvm.lifetime.end.p0(i64 4, ptr %5) #5
  ret void
}